     1 00000000                                 [FORMAT "WCOFF"]
     2 00000000                                 [INSTRSET "i486p"]
     3 00000000                                 [OPTIMIZE 1]
     4 00000000                                 [OPTION 1]
     5 00000000                                 [BITS 32]
     6 00000000                                 	EXTERN	_io_out8
     7 00000000                                 	EXTERN	_io_in8
     8 00000000                                 	EXTERN	_fifo8_put
     9 00000000                                 [FILE "int.c"]
    10                                          [SECTION .text]
    11 00000000                                 	GLOBAL	_init_pic
    12 00000000                                 _init_pic:
    13 00000000 55                              	PUSH	EBP
    14 00000001 89 E5                           	MOV	EBP,ESP
    15 00000003 68 000000FF                     	PUSH	255
    16 00000008 6A 21                           	PUSH	33
    17 0000000A E8 [00000000]                   	CALL	_io_out8
    18 0000000F 68 000000FF                     	PUSH	255
    19 00000014 6A 21                           	PUSH	33
    20 00000016 E8 [00000000]                   	CALL	_io_out8
    21 0000001B 6A 11                           	PUSH	17
    22 0000001D 6A 20                           	PUSH	32
    23 0000001F E8 [00000000]                   	CALL	_io_out8
    24 00000024 6A 20                           	PUSH	32
    25 00000026 6A 21                           	PUSH	33
    26 00000028 E8 [00000000]                   	CALL	_io_out8
    27 0000002D 83 C4 20                        	ADD	ESP,32
    28 00000030 6A 04                           	PUSH	4
    29 00000032 6A 21                           	PUSH	33
    30 00000034 E8 [00000000]                   	CALL	_io_out8
    31 00000039 6A 01                           	PUSH	1
    32 0000003B 6A 21                           	PUSH	33
    33 0000003D E8 [00000000]                   	CALL	_io_out8
    34 00000042 6A 11                           	PUSH	17
    35 00000044 68 000000A0                     	PUSH	160
    36 00000049 E8 [00000000]                   	CALL	_io_out8
    37 0000004E 6A 28                           	PUSH	40
    38 00000050 68 000000A1                     	PUSH	161
    39 00000055 E8 [00000000]                   	CALL	_io_out8
    40 0000005A 83 C4 20                        	ADD	ESP,32
    41 0000005D 6A 02                           	PUSH	2
    42 0000005F 68 000000A1                     	PUSH	161
    43 00000064 E8 [00000000]                   	CALL	_io_out8
    44 00000069 6A 01                           	PUSH	1
    45 0000006B 68 000000A1                     	PUSH	161
    46 00000070 E8 [00000000]                   	CALL	_io_out8
    47 00000075 68 000000FB                     	PUSH	251
    48 0000007A 6A 21                           	PUSH	33
    49 0000007C E8 [00000000]                   	CALL	_io_out8
    50 00000081 68 000000FF                     	PUSH	255
    51 00000086 6A 21                           	PUSH	33
    52 00000088 E8 [00000000]                   	CALL	_io_out8
    53 0000008D C9                              	LEAVE
    54 0000008E C3                              	RET
    55 0000008F                                 	GLOBAL	_inthandler21
    56 0000008F                                 _inthandler21:
    57 0000008F 55                              	PUSH	EBP
    58 00000090 89 E5                           	MOV	EBP,ESP
    59 00000092 6A 61                           	PUSH	97
    60 00000094 6A 20                           	PUSH	32
    61 00000096 E8 [00000000]                   	CALL	_io_out8
    62 0000009B 6A 60                           	PUSH	96
    63 0000009D E8 [00000000]                   	CALL	_io_in8
    64 000000A2 0F B6 C0                        	MOVZX	EAX,AL
    65 000000A5 50                              	PUSH	EAX
    66 000000A6 68 [00000000]                   	PUSH	_keyfifo
    67 000000AB E8 [00000000]                   	CALL	_fifo8_put
    68 000000B0 C9                              	LEAVE
    69 000000B1 C3                              	RET
    70 000000B2                                 	GLOBAL	_inthandler2c
    71 000000B2                                 _inthandler2c:
    72 000000B2 55                              	PUSH	EBP
    73 000000B3 89 E5                           	MOV	EBP,ESP
    74 000000B5 6A 64                           	PUSH	100
    75 000000B7 68 000000A0                     	PUSH	160
    76 000000BC E8 [00000000]                   	CALL	_io_out8
    77 000000C1 6A 62                           	PUSH	98
    78 000000C3 6A 20                           	PUSH	32
    79 000000C5 E8 [00000000]                   	CALL	_io_out8
    80 000000CA 6A 60                           	PUSH	96
    81 000000CC E8 [00000000]                   	CALL	_io_in8
    82 000000D1 0F B6 C0                        	MOVZX	EAX,AL
    83 000000D4 50                              	PUSH	EAX
    84 000000D5 68 [00000020]                   	PUSH	_mousefifo
    85 000000DA E8 [00000000]                   	CALL	_fifo8_put
    86 000000DF C9                              	LEAVE
    87 000000E0 C3                              	RET
    88 000000E1                                 	GLOBAL	_inthandler27
    89 000000E1                                 _inthandler27:
    90 000000E1 55                              	PUSH	EBP
    91 000000E2 89 E5                           	MOV	EBP,ESP
    92 000000E4 6A 67                           	PUSH	103
    93 000000E6 6A 20                           	PUSH	32
    94 000000E8 E8 [00000000]                   	CALL	_io_out8
    95 000000ED C9                              	LEAVE
    96 000000EE C3                              	RET
    97 000000EF                                 	GLOBAL	_keyfifo
    98                                          [SECTION .data]
    99 00000000                                 	ALIGNB	16
   100 00000000                                 _keyfifo:
   101 00000000 00 00 00 00 00 00 00 00 00 00   	RESB	24
       0000000A 00 00 00 00 00 00 00 00 00 00 
       00000014 00 00 00 00 
   102 00000018                                 	GLOBAL	_mousefifo
   103                                          [SECTION .data]
   104 00000018 00 00 00 00 00 00 00 00         	ALIGNB	16
   105 00000020                                 _mousefifo:
   106 00000020 00 00 00 00 00 00 00 00 00 00   	RESB	24
       0000002A 00 00 00 00 00 00 00 00 00 00 
       00000034 00 00 00 00 
